Certificate:
    Data:
        Version: 3 (0x2)
        Serial Number:
            07:27:0e:b7:94:82:47:1a:93:ea:d1:82:51:29:99:f4:39:2e:11:ea
        Signature Algorithm: sha256WithRSAEncryption
        Issuer: C=cu, ST=La Habana, O=Othar Entrega SURL, OU=Entregas, CN=mail.othar.cu/emailAddress=admin@othar.cu
        Validity
            Not Before: Oct 21 19:25:38 2022 GMT
            Not After : Oct 21 19:25:38 2023 GMT
        Subject: C=cu, ST=La Habana, L=Plaza, O=Othar Entrega SURL, OU=Entregas, CN=mail.othar.cu/emailAddress=admin@othar.cu
        Subject Public Key Info:
            Public Key Algorithm: rsaEncryption
                RSA Public-Key: (2048 bit)
                Modulus:
                    00:d3:78:d3:cb:4a:93:b1:ec:cc:9c:0c:ed:ad:fd:
                    cd:a8:62:b8:60:06:cd:57:ed:ab:d5:30:fc:af:8e:
                    fd:2b:c6:37:6e:e1:44:a2:24:cb:d7:41:db:0b:e4:
                    47:9d:fa:4b:f0:aa:9d:01:12:3c:cc:ac:ea:19:eb:
                    80:48:8c:ac:33:d7:50:e8:12:3b:79:ee:a5:19:0c:
                    22:9c:bd:06:87:f9:d9:3c:d8:c7:8e:2a:7c:ec:17:
                    bd:77:40:25:1b:ae:99:bd:22:ed:58:71:37:b3:e6:
                    9b:0f:b2:a7:fc:e4:6b:c3:19:ff:08:44:0e:9f:0c:
                    2f:29:a7:d9:7d:ca:79:88:b2:77:d4:00:20:81:1f:
                    28:1c:ba:5e:32:60:de:c3:30:5f:43:4f:6d:99:13:
                    17:84:67:c3:91:94:9b:3d:b7:6e:32:59:56:5c:78:
                    42:a1:1d:cd:2e:ee:0f:53:84:31:66:04:e2:04:de:
                    0a:30:7c:70:c1:b7:f5:00:95:c3:48:d1:91:cd:0e:
                    0e:77:b4:6a:b1:fa:cf:9b:8f:8c:97:b7:cf:b7:c2:
                    34:1a:9a:ab:74:e3:37:d9:96:c4:91:d0:3e:37:cf:
                    b1:d7:03:45:37:fa:e1:46:64:42:b8:8e:22:b0:12:
                    db:a2:d8:fe:da:fc:86:6a:65:17:78:a7:fc:a4:83:
                    e0:97
                Exponent: 65537 (0x10001)
        X509v3 extensions:
            X509v3 Basic Constraints: 
                CA:FALSE
            Netscape Comment: 
                OpenSSL Generated Certificate
            X509v3 Subject Key Identifier: 
                77:7A:7B:00:04:BD:6B:31:6F:27:2C:06:2A:D2:8F:95:9E:A1:78:02
            X509v3 Authority Key Identifier: 
                keyid:DB:62:0C:80:87:6F:83:D8:D4:35:56:AB:F8:EF:35:BF:08:F1:1E:D7

    Signature Algorithm: sha256WithRSAEncryption
         3b:c8:c5:2a:77:8a:83:68:1c:2a:6f:09:62:4e:50:a2:cb:83:
         8d:73:c3:b5:85:b8:2a:8b:d6:da:8d:39:89:f1:f8:f0:67:a7:
         08:47:d5:b1:c3:5c:ac:99:90:6e:3f:71:95:a2:11:34:79:ba:
         7e:ca:4d:b2:a4:7b:0f:ef:8b:75:06:bf:9a:21:94:9a:6a:2d:
         38:08:b8:fb:1d:56:53:b0:7f:c1:12:16:f2:6b:b2:8d:a2:55:
         3a:fe:15:fa:2d:95:ec:c3:55:54:ad:e0:bd:40:b5:40:89:30:
         85:a7:20:de:f8:d9:98:c2:1f:58:37:0a:93:f1:6b:19:9c:76:
         24:45:d6:ec:7f:bf:be:53:0e:b4:d8:23:40:f2:eb:12:ea:21:
         49:91:f2:da:72:75:6b:37:91:7e:59:a2:73:8d:cc:96:94:cd:
         00:bb:c2:e3:51:a5:10:dc:85:57:0f:63:1e:99:75:b6:b2:b3:
         b8:98:fc:cc:28:7b:22:b5:88:d6:4f:ef:11:82:10:10:20:56:
         a6:a0:45:ff:87:27:22:86:ef:30:dc:44:2e:07:7d:20:97:e0:
         c8:9a:e0:e5:ff:f6:de:47:90:db:2b:ed:da:ba:0a:8a:30:fe:
         48:30:85:96:a2:f2:f7:a3:bf:1c:c4:d1:e4:db:38:81:ff:b0:
         af:b4:46:bc
-----BEGIN CERTIFICATE-----
MIIEKzCCAxOgAwIBAgIUBycOt5SCRxqT6tGCUSmZ9DkuEeowDQYJKoZIhvcNAQEL
BQAwgYgxCzAJBgNVBAYTAmN1MRIwEAYDVQQIDAlMYSBIYWJhbmExGzAZBgNVBAoM
Ek90aGFyIEVudHJlZ2EgU1VSTDERMA8GA1UECwwIRW50cmVnYXMxFjAUBgNVBAMM
DW1haWwub3RoYXIuY3UxHTAbBgkqhkiG9w0BCQEWDmFkbWluQG90aGFyLmN1MB4X
DTIyMTAyMTE5MjUzOFoXDTIzMTAyMTE5MjUzOFowgZgxCzAJBgNVBAYTAmN1MRIw
EAYDVQQIDAlMYSBIYWJhbmExDjAMBgNVBAcMBVBsYXphMRswGQYDVQQKDBJPdGhh
ciBFbnRyZWdhIFNVUkwxETAPBgNVBAsMCEVudHJlZ2FzMRYwFAYDVQQDDA1tYWls
Lm90aGFyLmN1MR0wGwYJKoZIhvcNAQkBFg5hZG1pbkBvdGhhci5jdTCCASIwDQYJ
KoZIhvcNAQEBBQADggEPADCCAQoCggEBANN408tKk7HszJwM7a39zahiuGAGzVft
q9Uw/K+O/SvGN27hRKIky9dB2wvkR536S/CqnQESPMys6hnrgEiMrDPXUOgSO3nu
pRkMIpy9Bof52TzYx44qfOwXvXdAJRuumb0i7VhxN7Pmmw+yp/zka8MZ/whEDp8M
Lymn2X3KeYiyd9QAIIEfKBy6XjJg3sMwX0NPbZkTF4Rnw5GUmz23bjJZVlx4QqEd
zS7uD1OEMWYE4gTeCjB8cMG39QCVw0jRkc0ODne0arH6z5uPjJe3z7fCNBqaq3Tj
N9mWxJHQPjfPsdcDRTf64UZkQriOIrAS26LY/tr8hmplF3in/KSD4JcCAwEAAaN7
MHkwCQYDVR0TBAIwADAsBglghkgBhvhCAQ0EHxYdT3BlblNTTCBHZW5lcmF0ZWQg
Q2VydGlmaWNhdGUwHQYDVR0OBBYEFHd6ewAEvWsxbycsBirSj5WeoXgCMB8GA1Ud
IwQYMBaAFNtiDICHb4PY1DVWq/jvNb8I8R7XMA0GCSqGSIb3DQEBCwUAA4IBAQA7
yMUqd4qDaBwqbwliTlCiy4ONc8O1hbgqi9bajTmJ8fjwZ6cIR9Wxw1ysmZBuP3GV
ohE0ebp+yk2ypHsP74t1Br+aIZSaai04CLj7HVZTsH/BEhbya7KNolU6/hX6LZXs
w1VUreC9QLVAiTCFpyDe+NmYwh9YNwqT8WsZnHYkRdbsf7++Uw602CNA8usS6iFJ
kfLacnVrN5F+WaJzjcyWlM0Au8LjUaUQ3IVXD2MemXW2srO4mPzMKHsitYjWT+8R
ghAQIFamoEX/hycihu8w3EQuB30gl+DImuDl//beR5DbK+3augqKMP5IMIWWovL3
o78cxNHk2ziB/7CvtEa8
-----END CERTIFICATE-----
