Certificate:
    Data:
        Version: 3 (0x2)
        Serial Number:
            02:3b:ad:07:d4:40:6f:16:95:e2:41:8a:22:3e:da:09:ec:b2:98:2f
        Signature Algorithm: sha256WithRSAEncryption
        Issuer: C=cu, ST=La Habana, O=PYME, OU=TI, CN=smtp.mycubantrip.com/emailAddress=admin@mycubantrip.com
        Validity
            Not Before: Jul 22 21:42:15 2022 GMT
            Not After : Jul 22 21:42:15 2023 GMT
        Subject: C=cu, ST=La Habana, L=Boyeros, O=PYME, OU=TI, CN=smtp.mycubantrip.com/emailAddress=admin@mycubantrip.com
        Subject Public Key Info:
            Public Key Algorithm: rsaEncryption
                RSA Public-Key: (2048 bit)
                Modulus:
                    00:d8:9e:24:c0:0d:fb:de:62:f9:e0:93:d6:46:d8:
                    aa:f2:e6:1d:08:49:68:3b:ac:8b:33:76:13:cc:90:
                    67:e6:ca:48:d1:93:2d:2b:e8:28:ea:5e:97:3e:44:
                    6b:ff:13:77:0c:38:0d:91:ca:2f:e0:30:40:98:11:
                    74:19:67:60:47:95:3f:96:8a:62:7a:3a:eb:19:66:
                    91:6f:d6:d0:29:d3:80:e8:e4:fa:d4:1b:d6:fa:7f:
                    0a:8c:13:eb:13:3b:8f:4f:fd:8f:94:dd:f0:fb:72:
                    96:c3:4e:86:74:66:ea:6e:9e:33:37:4a:78:ce:00:
                    36:a2:81:db:e6:40:05:88:d1:12:7c:55:71:da:d4:
                    ec:ab:13:67:4f:3a:40:7e:2d:33:e7:8e:28:23:f4:
                    63:2d:3e:24:69:82:6d:bc:eb:a3:1b:fb:bd:f5:4f:
                    89:b4:cb:71:48:98:f1:32:b7:fe:1f:d9:10:51:f4:
                    21:c3:5e:ed:be:5d:8a:d3:6f:01:3c:4a:0f:a5:0e:
                    a4:89:8f:32:43:55:be:f6:b4:ea:71:53:67:45:2b:
                    61:5b:80:1a:aa:4c:f7:6b:c8:33:89:ba:ee:2a:26:
                    17:7f:07:0f:e2:0d:cf:90:af:3d:ca:6a:c7:52:20:
                    ce:94:de:d9:a8:94:23:fc:4a:7b:59:d3:ae:d8:46:
                    0b:cf
                Exponent: 65537 (0x10001)
        X509v3 extensions:
            X509v3 Basic Constraints: 
                CA:FALSE
            Netscape Comment: 
                OpenSSL Generated Certificate
            X509v3 Subject Key Identifier: 
                D8:44:FD:71:55:62:89:B6:AC:F3:D5:04:97:C8:EF:90:96:01:5F:11
            X509v3 Authority Key Identifier: 
                keyid:4F:17:62:16:A8:99:95:23:76:9A:39:97:CE:1C:D2:79:BA:32:8B:B0

    Signature Algorithm: sha256WithRSAEncryption
         98:1c:a1:05:2b:bc:17:0c:2a:27:6c:48:e6:8f:9a:1c:a3:b8:
         b4:99:1c:c0:3b:97:b0:e2:8b:a8:10:dd:2a:45:87:4e:48:ff:
         5e:9a:d9:8a:3f:17:5f:6c:af:d4:39:1f:56:12:67:26:6f:7e:
         22:8c:e6:54:16:0b:90:94:18:7e:07:4a:e7:f1:ca:e7:69:f1:
         cc:7b:42:4b:75:a3:39:99:26:4f:bc:a5:63:30:52:15:2d:34:
         91:be:c4:b3:36:53:fb:48:d4:26:39:fd:04:37:17:52:89:dc:
         7d:8c:a8:7e:f9:e0:5b:68:ee:6b:9d:a2:a1:db:58:ab:24:1f:
         34:bd:c3:09:19:90:d4:f5:50:1a:eb:d4:7c:5f:d3:b6:f3:34:
         c2:d9:37:5f:15:73:cf:45:cd:69:17:09:ba:be:95:0e:db:eb:
         fb:c6:9f:93:6e:38:ac:b9:3f:05:e3:0c:9f:66:2b:3d:22:c8:
         83:4f:cc:ff:17:f0:34:4b:3c:09:5f:da:02:17:a2:12:b1:32:
         b6:50:48:46:fc:ed:3a:57:d2:6f:76:50:94:33:20:ec:cb:27:
         8c:b1:37:3a:fb:70:6a:05:f7:fc:2f:3d:e7:07:f3:bc:ce:3d:
         f9:d1:ce:30:35:8a:0d:18:eb:49:75:d2:5f:79:d3:99:ca:b5:
         63:d2:ca:f5
-----BEGIN CERTIFICATE-----
MIIEITCCAwmgAwIBAgIUAjutB9RAbxaV4kGKIj7aCeyymC8wDQYJKoZIhvcNAQEL
BQAwgYIxCzAJBgNVBAYTAmN1MRIwEAYDVQQIDAlMYSBIYWJhbmExDTALBgNVBAoM
BFBZTUUxCzAJBgNVBAsMAlRJMR0wGwYDVQQDDBRzbXRwLm15Y3ViYW50cmlwLmNv
bTEkMCIGCSqGSIb3DQEJARYVYWRtaW5AbXljdWJhbnRyaXAuY29tMB4XDTIyMDcy
MjIxNDIxNVoXDTIzMDcyMjIxNDIxNVowgZQxCzAJBgNVBAYTAmN1MRIwEAYDVQQI
DAlMYSBIYWJhbmExEDAOBgNVBAcMB0JveWVyb3MxDTALBgNVBAoMBFBZTUUxCzAJ
BgNVBAsMAlRJMR0wGwYDVQQDDBRzbXRwLm15Y3ViYW50cmlwLmNvbTEkMCIGCSqG
SIb3DQEJARYVYWRtaW5AbXljdWJhbnRyaXAuY29tMIIBIjANBgkqhkiG9w0BAQEF
AAOCAQ8AMIIBCgKCAQEA2J4kwA373mL54JPWRtiq8uYdCEloO6yLM3YTzJBn5spI
0ZMtK+go6l6XPkRr/xN3DDgNkcov4DBAmBF0GWdgR5U/lopiejrrGWaRb9bQKdOA
6OT61BvW+n8KjBPrEzuPT/2PlN3w+3KWw06GdGbqbp4zN0p4zgA2ooHb5kAFiNES
fFVx2tTsqxNnTzpAfi0z544oI/RjLT4kaYJtvOujG/u99U+JtMtxSJjxMrf+H9kQ
UfQhw17tvl2K028BPEoPpQ6kiY8yQ1W+9rTqcVNnRSthW4Aaqkz3a8gzibruKiYX
fwcP4g3PkK89ymrHUiDOlN7ZqJQj/Ep7WdOu2EYLzwIDAQABo3sweTAJBgNVHRME
AjAAMCwGCWCGSAGG+EIBDQQfFh1PcGVuU1NMIEdlbmVyYXRlZCBDZXJ0aWZpY2F0
ZTAdBgNVHQ4EFgQU2ET9cVViibas89UEl8jvkJYBXxEwHwYDVR0jBBgwFoAUTxdi
FqiZlSN2mjmXzhzSeboyi7AwDQYJKoZIhvcNAQELBQADggEBAJgcoQUrvBcMKids
SOaPmhyjuLSZHMA7l7Dii6gQ3SpFh05I/16a2Yo/F19sr9Q5H1YSZyZvfiKM5lQW
C5CUGH4HSufxyudp8cx7Qkt1ozmZJk+8pWMwUhUtNJG+xLM2U/tI1CY5/QQ3F1KJ
3H2MqH754Fto7mudoqHbWKskHzS9wwkZkNT1UBrr1Hxf07bzNMLZN18Vc89FzWkX
Cbq+lQ7b6/vGn5NuOKy5PwXjDJ9mKz0iyINPzP8X8DRLPAlf2gIXohKxMrZQSEb8
7TpX0m92UJQzIOzLJ4yxNzr7cGoF9/wvPecH87zOPfnRzjA1ig0Y60l10l9505nK
tWPSyvU=
-----END CERTIFICATE-----
